target datalayout = "e-m:e-p270:32:32-p271:32:32-p272:64:64-i64:64-i128:128-f80:128-n8:16:32:64-S128"
target triple = "x86_64-pc-linux-gnu"

%union.LWLockPadded = type { %struct.LWLock, [112 x i8] }
%struct.LWLock = type { i16, %struct.pg_atomic_uint32, %struct.proclist_head }
%struct.pg_atomic_uint32 = type { i32 }
%struct.proclist_head = type { i32, i32 }
%struct.MultiXactStateData = type { i32, i32, i8, i32, i32, i32, i8, i32, i32, i32, i32, i32, %struct.ConditionVariable, [0 x i32] }
%struct.ConditionVariable = type { i8, %struct.proclist_head }

@OldestMemberMXactId = internal global ptr null, align 8
@MyProcNumber = external global i32, align 4
@MainLWLockArray = external global ptr, align 8
@MultiXactState = internal global ptr null, align 8

; Function Attrs: nounwind uwtable
define dso_local void @MultiXactIdSetOldestMember() #0 {
  %1 = alloca i32, align 4
  %2 = load ptr, ptr @OldestMemberMXactId, align 8
  %3 = load i32, ptr @MyProcNumber, align 4
  %4 = sext i32 %3 to i64
  %5 = getelementptr inbounds i32, ptr %2, i64 %4
  %6 = load i32, ptr %5, align 4
  %7 = icmp ne i32 %6, 0
  br i1 %7, label %26, label %8

8:                                                ; preds = %0
  call void @llvm.lifetime.start.p0(i64 4, ptr %1) #9
  %9 = load ptr, ptr @MainLWLockArray, align 8
  %10 = getelementptr inbounds %union.LWLockPadded, ptr %9, i64 13
  %11 = call zeroext i1 @LWLockAcquire(ptr noundef %10, i32 noundef 1)
  %12 = load ptr, ptr @MultiXactState, align 8
  %13 = getelementptr inbounds nuw %struct.MultiXactStateData, ptr %12, i32 0, i32 0
  %14 = load i32, ptr %13, align 4
  store i32 %14, ptr %1, align 4
  %15 = load i32, ptr %1, align 4
  %16 = icmp ult i32 %15, 1
  br i1 %16, label %17, label %18

17:                                               ; preds = %8
  store i32 1, ptr %1, align 4
  br label %18

18:                                               ; preds = %17, %8
  %19 = load i32, ptr %1, align 4
  %20 = load ptr, ptr @OldestMemberMXactId, align 8
  %21 = load i32, ptr @MyProcNumber, align 4
  %22 = sext i32 %21 to i64
  %23 = getelementptr inbounds i32, ptr %20, i64 %22
  store i32 %19, ptr %23, align 4
  %24 = load ptr, ptr @MainLWLockArray, align 8
  %25 = getelementptr inbounds %union.LWLockPadded, ptr %24, i64 13
  call void @LWLockRelease(ptr noundef %25)
  call void @llvm.lifetime.end.p0(i64 4, ptr %1) #9
  br label %26

26:                                               ; preds = %18, %0
  ret void
}