; Function Attrs: nounwind uwtable
define dso_local void @MultiXactIdSetOldestMember() local_unnamed_addr #0 {
  %1 = load ptr, ptr @OldestMemberMXactId, align 8
  %2 = load i32, ptr @MyProcNumber, align 4
  %3 = sext i32 %2 to i64
  %4 = getelementptr inbounds i32, ptr %1, i64 %3
  %5 = load i32, ptr %4, align 4
  %.not = icmp eq i32 %5, 0
  br i1 %.not, label %6, label %18

6:                                                ; preds = %0
  %7 = load ptr, ptr @MainLWLockArray, align 8
  %8 = getelementptr inbounds nuw i8, ptr %7, i64 1664
  %9 = tail call zeroext i1 @LWLockAcquire(ptr noundef nonnull %8, i32 noundef 1) #13
  %10 = load ptr, ptr @MultiXactState, align 8
  %11 = load i32, ptr %10, align 4
  %spec.store.select = tail call i32 @llvm.umax.i32(i32 %11, i32 1)
  %12 = load ptr, ptr @OldestMemberMXactId, align 8
  %13 = load i32, ptr @MyProcNumber, align 4
  %14 = sext i32 %13 to i64
  %15 = getelementptr inbounds i32, ptr %12, i64 %14
  store i32 %spec.store.select, ptr %15, align 4
  %16 = load ptr, ptr @MainLWLockArray, align 8
  %17 = getelementptr inbounds nuw i8, ptr %16, i64 1664
  tail call void @LWLockRelease(ptr noundef nonnull %17) #13
  br label %18

18:                                               ; preds = %6, %0
  ret void
}